; Function Attrs: mustprogress nofree norecurse nosync nounwind willreturn memory(argmem: read) uwtable
define noundef zeroext i1 @_ZNK32pxrInternal_v0_24__pxrReserved__17UsdAttributeQuery23HasAuthoredValueOpinionEv(ptr nocapture noundef nonnull readonly align 8 dereferenceable(120) %0) local_unnamed_addr #5 align 2 {
  %2 = getelementptr inbounds i8, ptr %0, i64 104
  %3 = load i32, ptr %2, align 8
  %.off.i = add i32 %3, -2
  %switch.i = icmp ult i32 %.off.i, 3
  %4 = getelementptr inbounds i8, ptr %0, i64 108
  %5 = load i8, ptr %4, align 4
  %6 = trunc i8 %5 to i1
  %7 = select i1 %switch.i, i1 true, i1 %6
  ret i1 %7
}